; Function Attrs: nounwind uwtable
define ptr @l_Array_mapMUnsafe_map___at_Lean_Elab_Term_elabCDotFunctionAlias_x3f___spec__14(ptr readnone captures(none) %0, i64 noundef %1, i64 noundef %2, ptr noundef %3) local_unnamed_addr #0 {
  %.not38 = icmp ult i64 %2, %1
  br i1 %.not38, label %.lr.ph, label %._crit_edge

.lr.ph:                                           ; preds = %4, %47
  %.01740 = phi i64 [ %31, %47 ], [ %2, %4 ]
  %.01939 = phi ptr [ %.0.i.i27, %47 ], [ %3, %4 ]
  %5 = getelementptr inbounds nuw i8, ptr %.01939, i64 24
  %6 = getelementptr inbounds nuw [0 x ptr], ptr %5, i64 0, i64 %.01740
  %7 = load ptr, ptr %6, align 8, !tbaa !10
  %8 = ptrtoint ptr %7 to i64
  %9 = and i64 %8, 1
  %.not.i = icmp eq i64 %9, 0
  br i1 %.not.i, label %10, label %lean_array_uget.exit

10:                                               ; preds = %.lr.ph
  %.val.i.i = load i32, ptr %7, align 4, !tbaa !4
  %11 = icmp sgt i32 %.val.i.i, 0
  br i1 %11, label %12, label %14, !prof !9

12:                                               ; preds = %10
  %13 = add nuw i32 %.val.i.i, 1
  store i32 %13, ptr %7, align 4, !tbaa !4
  br label %lean_array_uget.exit

14:                                               ; preds = %10
  %.not.i.i = icmp eq i32 %.val.i.i, 0
  br i1 %.not.i.i, label %lean_array_uget.exit, label %15

15:                                               ; preds = %14
  tail call void @lean_inc_ref_cold(ptr noundef nonnull %7) #6
  br label %lean_array_uget.exit

lean_array_uget.exit:                             ; preds = %.lr.ph, %12, %14, %15
  %.val.i.i22 = load i32, ptr %.01939, align 4, !tbaa !4
  %16 = icmp eq i32 %.val.i.i22, 1
  br i1 %16, label %lean_ensure_exclusive_array.exit.i, label %17

17:                                               ; preds = %lean_array_uget.exit
  %18 = tail call ptr @lean_copy_expand_array(ptr noundef nonnull %.01939, i1 noundef zeroext false) #6
  br label %lean_ensure_exclusive_array.exit.i

lean_ensure_exclusive_array.exit.i:               ; preds = %17, %lean_array_uget.exit
  %.0.i.i = phi ptr [ %18, %17 ], [ %.01939, %lean_array_uget.exit ]
  %19 = getelementptr inbounds nuw i8, ptr %.0.i.i, i64 24
  %20 = getelementptr inbounds nuw ptr, ptr %19, i64 %.01740
  %21 = load ptr, ptr %20, align 8, !tbaa !10
  %22 = ptrtoint ptr %21 to i64
  %23 = and i64 %22, 1
  %.not.i23 = icmp eq i64 %23, 0
  br i1 %.not.i23, label %24, label %lean_array_uset.exit

24:                                               ; preds = %lean_ensure_exclusive_array.exit.i
  %25 = load i32, ptr %21, align 4, !tbaa !4
  %26 = icmp sgt i32 %25, 1
  br i1 %26, label %27, label %29, !prof !9

27:                                               ; preds = %24
  %28 = add nsw i32 %25, -1
  store i32 %28, ptr %21, align 4, !tbaa !4
  br label %lean_array_uset.exit

29:                                               ; preds = %24
  %.not.i.i24 = icmp eq i32 %25, 0
  br i1 %.not.i.i24, label %lean_array_uset.exit, label %30

30:                                               ; preds = %29
  tail call void @lean_dec_ref_cold(ptr noundef nonnull %21) #6
  br label %lean_array_uset.exit

lean_array_uset.exit:                             ; preds = %lean_ensure_exclusive_array.exit.i, %27, %29, %30
  store ptr inttoptr (i64 1 to ptr), ptr %20, align 8, !tbaa !10
  %31 = add nuw i64 %.01740, 1
  %.val.i.i25 = load i32, ptr %.0.i.i, align 4, !tbaa !4
  %32 = icmp eq i32 %.val.i.i25, 1
  br i1 %32, label %lean_ensure_exclusive_array.exit.i26, label %33

33:                                               ; preds = %lean_array_uset.exit
  %34 = tail call ptr @lean_copy_expand_array(ptr noundef nonnull %.0.i.i, i1 noundef zeroext false) #6
  %.phi.trans.insert = getelementptr inbounds nuw i8, ptr %34, i64 24
  %.phi.trans.insert41 = getelementptr inbounds nuw ptr, ptr %.phi.trans.insert, i64 %.01740
  %.pre = load ptr, ptr %.phi.trans.insert41, align 8, !tbaa !10
  br label %lean_ensure_exclusive_array.exit.i26

lean_ensure_exclusive_array.exit.i26:             ; preds = %33, %lean_array_uset.exit
  %35 = phi ptr [ %.pre, %33 ], [ inttoptr (i64 1 to ptr), %lean_array_uset.exit ]
  %.0.i.i27 = phi ptr [ %34, %33 ], [ %.0.i.i, %lean_array_uset.exit ]
  %36 = getelementptr inbounds nuw i8, ptr %.0.i.i27, i64 24
  %37 = getelementptr inbounds nuw ptr, ptr %36, i64 %.01740
  %38 = ptrtoint ptr %35 to i64
  %39 = and i64 %38, 1
  %.not.i28 = icmp eq i64 %39, 0
  br i1 %.not.i28, label %40, label %47

40:                                               ; preds = %lean_ensure_exclusive_array.exit.i26
  %41 = load i32, ptr %35, align 4, !tbaa !4
  %42 = icmp sgt i32 %41, 1
  br i1 %42, label %43, label %45, !prof !9

43:                                               ; preds = %40
  %44 = add nsw i32 %41, -1
  store i32 %44, ptr %35, align 4, !tbaa !4
  br label %47

45:                                               ; preds = %40
  %.not.i.i29 = icmp eq i32 %41, 0
  br i1 %.not.i.i29, label %47, label %46

46:                                               ; preds = %45
  tail call void @lean_dec_ref_cold(ptr noundef nonnull %35) #6
  br label %47

47:                                               ; preds = %46, %45, %43, %lean_ensure_exclusive_array.exit.i26
  store ptr %7, ptr %37, align 8, !tbaa !10
  %exitcond.not = icmp eq i64 %31, %1
  br i1 %exitcond.not, label %._crit_edge, label %.lr.ph

._crit_edge:                                      ; preds = %47, %4
  %.019.lcssa = phi ptr [ %3, %4 ], [ %.0.i.i27, %47 ]
  ret ptr %.019.lcssa
}